; Function Attrs: mustprogress uwtable
define void @_ZN8facebook5velox4exec25CoalesceCallToSpecialForm11resolveTypeERKSt6vectorISt10shared_ptrIKNS0_4TypeEESaIS7_EE(ptr noalias nocapture writeonly sret(%"class.std::shared_ptr") align 8 %agg.result, ptr nocapture nonnull readnone align 8 %this, ptr nocapture noundef nonnull readonly align 8 dereferenceable(24) %argTypes) unnamed_addr #0 align 2 personality ptr @__gxx_personality_v0 {
entry:
  tail call void @llvm.experimental.noalias.scope.decl(metadata !30)
  %_M_finish.i.i = getelementptr inbounds i8, ptr %argTypes, i64 8
  %0 = load ptr, ptr %_M_finish.i.i, align 8, !noalias !30
  %1 = load ptr, ptr %argTypes, align 8, !noalias !30
  %cmp.not.i = icmp eq ptr %0, %1
  br i1 %cmp.not.i, label %if.then.i, label %for.cond.preheader.i

for.cond.preheader.i:                             ; preds = %entry
  %sub.ptr.lhs.cast.i813.i = ptrtoint ptr %0 to i64
  %sub.ptr.rhs.cast.i914.i = ptrtoint ptr %1 to i64
  %sub.ptr.sub.i1015.i = sub i64 %sub.ptr.lhs.cast.i813.i, %sub.ptr.rhs.cast.i914.i
  %cmp217.i = icmp ugt i64 %sub.ptr.sub.i1015.i, 16
  br i1 %cmp217.i, label %for.body.i, label %for.end.i

if.then.i:                                        ; preds = %entry
  tail call void @llvm.trap()
  unreachable

for.cond.i:                                       ; preds = %for.body.i
  %indvars.iv.next.i = add nuw i64 %indvars.iv.i, 1
  %2 = load ptr, ptr %_M_finish.i.i, align 8, !noalias !30
  %3 = load ptr, ptr %argTypes, align 8, !noalias !30
  %sub.ptr.lhs.cast.i8.i = ptrtoint ptr %2 to i64
  %sub.ptr.rhs.cast.i9.i = ptrtoint ptr %3 to i64
  %sub.ptr.sub.i10.i = sub i64 %sub.ptr.lhs.cast.i8.i, %sub.ptr.rhs.cast.i9.i
  %sub.ptr.div.i11.i = ashr exact i64 %sub.ptr.sub.i10.i, 4
  %cmp2.i = icmp ugt i64 %sub.ptr.div.i11.i, %indvars.iv.next.i
  br i1 %cmp2.i, label %for.body.i, label %for.end.i, !llvm.loop !13

for.body.i:                                       ; preds = %for.cond.preheader.i, %for.cond.i
  %indvars.iv.i = phi i64 [ %indvars.iv.next.i, %for.cond.i ], [ 1, %for.cond.preheader.i ]
  %4 = phi ptr [ %3, %for.cond.i ], [ %1, %for.cond.preheader.i ]
  %5 = load ptr, ptr %4, align 8, !noalias !30
  %add.ptr.i.i = getelementptr inbounds %"class.std::shared_ptr", ptr %4, i64 %indvars.iv.i
  %6 = load ptr, ptr %add.ptr.i.i, align 8, !noalias !30
  %vtable.i = load ptr, ptr %5, align 8, !noalias !30
  %vfn.i = getelementptr inbounds i8, ptr %vtable.i, i64 96
  %7 = load ptr, ptr %vfn.i, align 8, !noalias !30
  %call8.i = tail call noundef zeroext i1 %7(ptr noundef nonnull align 8 dereferenceable(17) %5, ptr noundef nonnull align 8 dereferenceable(17) %6), !noalias !30
  br i1 %call8.i, label %for.cond.i, label %if.then11.i

if.then11.i:                                      ; preds = %for.body.i
  tail call void @llvm.trap()
  unreachable

for.end.i:                                        ; preds = %for.cond.i, %for.cond.preheader.i
  %.lcssa.i = phi ptr [ %1, %for.cond.preheader.i ], [ %3, %for.cond.i ]
  %8 = load <2 x ptr>, ptr %.lcssa.i, align 8, !noalias !30
  store <2 x ptr> %8, ptr %agg.result, align 8, !alias.scope !30
  %9 = extractelement <2 x ptr> %8, i64 1
  %cmp.not.i.i.i.i = icmp eq ptr %9, null
  br i1 %cmp.not.i.i.i.i, label %_ZN8facebook5velox4exec12CoalesceExpr11resolveTypeERKSt6vectorISt10shared_ptrIKNS0_4TypeEESaIS7_EE.exit, label %if.then.i.i.i.i

if.then.i.i.i.i:                                  ; preds = %for.end.i
  %_M_use_count.i.i.i.i.i = getelementptr inbounds i8, ptr %9, i64 8
  %10 = load i8, ptr @__libc_single_threaded, align 1, !noalias !30
  %tobool.i.i.not.i.i.i.i.i = icmp eq i8 %10, 0
  br i1 %tobool.i.i.not.i.i.i.i.i, label %if.else.i.i.i.i.i.i, label %if.then.i.i.i.i.i.i

if.then.i.i.i.i.i.i:                              ; preds = %if.then.i.i.i.i
  %11 = load i32, ptr %_M_use_count.i.i.i.i.i, align 4, !noalias !30
  %add.i.i.i.i.i.i = add nsw i32 %11, 1
  store i32 %add.i.i.i.i.i.i, ptr %_M_use_count.i.i.i.i.i, align 4, !noalias !30
  br label %_ZN8facebook5velox4exec12CoalesceExpr11resolveTypeERKSt6vectorISt10shared_ptrIKNS0_4TypeEESaIS7_EE.exit

if.else.i.i.i.i.i.i:                              ; preds = %if.then.i.i.i.i
  %12 = atomicrmw volatile add ptr %_M_use_count.i.i.i.i.i, i32 1 acq_rel, align 4, !noalias !30
  br label %_ZN8facebook5velox4exec12CoalesceExpr11resolveTypeERKSt6vectorISt10shared_ptrIKNS0_4TypeEESaIS7_EE.exit

_ZN8facebook5velox4exec12CoalesceExpr11resolveTypeERKSt6vectorISt10shared_ptrIKNS0_4TypeEESaIS7_EE.exit: ; preds = %for.end.i, %if.then.i.i.i.i.i.i, %if.else.i.i.i.i.i.i
  ret void
}